target datalayout = "e-m:e-p270:32:32-p271:32:32-p272:64:64-i64:64-i128:128-f80:128-n8:16:32:64-S128"
target triple = "x86_64-pc-linux-gnu"

%struct.dt_pthread_mutex_t = type { %union.pthread_mutex_t }
%union.pthread_mutex_t = type { %struct.__pthread_mutex_s }
%struct.__pthread_mutex_s = type { i32, i32, i32, i32, i32, i16, i16, %struct.__pthread_internal_list }
%struct.__pthread_internal_list = type { ptr, ptr }
%struct._GList = type { ptr, ptr, ptr }
%struct.dt_iop_module_t = type { i32, ptr, ptr, ptr, ptr, ptr, ptr, ptr, ptr, ptr, ptr, ptr, ptr, ptr, ptr, ptr, ptr, ptr, ptr, ptr, ptr, ptr, ptr, ptr, ptr, ptr, ptr, ptr, ptr, ptr, ptr, ptr, ptr, ptr, ptr, ptr, ptr, ptr, ptr, ptr, ptr, ptr, ptr, ptr, ptr, ptr, ptr, ptr, ptr, ptr, ptr, ptr, ptr, ptr, ptr, ptr, ptr, [20 x i8], i32, i32, i32, i32, i32, i32, i32, [8 x i8], [4 x float], [4 x float], [4 x float], [4 x float], [4 x float], [4 x float], ptr, %struct.dt_dev_histogram_stats_t, [4 x i32], i32, i32, ptr, i32, i32, ptr, ptr, i32, ptr, %struct.dt_pthread_mutex_t, ptr, ptr, ptr, ptr, %struct.anon.4, ptr, ptr, ptr, ptr, ptr, ptr, ptr, i32, ptr, ptr, ptr, ptr, ptr, ptr, ptr, i32, ptr, i32, [128 x i8], i32, ptr, ptr, i32, [12 x i8] }
%struct.dt_dev_histogram_stats_t = type { i32, i64, i32, i32 }
%struct.anon.4 = type { %struct.anon.5, %struct.anon.6 }
%struct.anon.5 = type { ptr, ptr }
%struct.anon.6 = type { ptr, i32 }
%struct._GdkEventButton = type { i32, ptr, i8, i32, double, double, ptr, i32, i32, ptr, double, double }
%struct._GTypeInstance = type { ptr }
%struct._GTypeClass = type { i64 }

@.str.55 = private unnamed_addr constant [21 x i8] c"accel/prefer_enabled\00", align 1
@.str.56 = private unnamed_addr constant [22 x i8] c"accel/prefer_unmasked\00", align 1
@.str.94 = private unnamed_addr constant [15 x i8] c"dt-preset-name\00", align 1
@_click_time = internal global i32 -1, align 4
@.str.169 = private unnamed_addr constant [32 x i8] c"darkroom/ui/rename_new_instance\00", align 1

; Function Attrs: nounwind uwtable
define internal i32 @_menuitem_button_preset(ptr noundef %0, ptr noundef %1, ptr noundef %2) #0 {
  %4 = alloca ptr, align 8
  %5 = alloca ptr, align 8
  %6 = alloca ptr, align 8
  %7 = alloca i32, align 4
  %8 = alloca ptr, align 8
  %9 = alloca ptr, align 8
  %10 = alloca ptr, align 8
  %11 = alloca ptr, align 8
  %12 = alloca i64, align 8
  %13 = alloca i32, align 4
  %14 = alloca i32, align 4
  %15 = alloca ptr, align 8
  store ptr %0, ptr %4, align 8, !tbaa !191
  store ptr %1, ptr %5, align 8, !tbaa !221
  store ptr %2, ptr %6, align 8, !tbaa !83
  call void @llvm.lifetime.start.p0(i64 4, ptr %7) #11
  %16 = load ptr, ptr %5, align 8, !tbaa !221
  %17 = getelementptr inbounds nuw %struct._GdkEventButton, ptr %16, i32 0, i32 3
  %18 = load i32, ptr %17, align 4, !tbaa !223
  %19 = load i32, ptr @_click_time, align 4, !tbaa !13
  %20 = call i32 @dt_gui_long_click(i32 noundef %18, i32 noundef %19)
  store i32 %20, ptr %7, align 4, !tbaa !13
  call void @llvm.lifetime.start.p0(i64 8, ptr %8) #11
  %21 = load ptr, ptr %4, align 8, !tbaa !191
  %22 = call ptr @g_type_check_instance_cast(ptr noundef %21, i64 noundef 80)
  %23 = call ptr @g_object_get_data(ptr noundef %22, ptr noundef @.str.94)
  store ptr %23, ptr %8, align 8, !tbaa !11
  %24 = load ptr, ptr %5, align 8, !tbaa !221
  %25 = getelementptr inbounds nuw %struct._GdkEventButton, ptr %24, i32 0, i32 8
  %26 = load i32, ptr %25, align 4, !tbaa !228
  %27 = icmp eq i32 %26, 1
  br i1 %27, label %28, label %97

28:                                               ; preds = %3
  %29 = load i32, ptr @_click_time, align 4, !tbaa !13
  %30 = load ptr, ptr %5, align 8, !tbaa !221
  %31 = getelementptr inbounds nuw %struct._GdkEventButton, ptr %30, i32 0, i32 3
  %32 = load i32, ptr %31, align 4, !tbaa !223
  %33 = icmp ugt i32 %29, %32
  br i1 %33, label %34, label %96

34:                                               ; preds = %28
  call void @llvm.lifetime.start.p0(i64 8, ptr %9) #11
  %35 = load ptr, ptr %4, align 8, !tbaa !191
  %36 = call i64 @gtk_widget_get_type() #14
  %37 = call ptr @g_type_check_instance_cast(ptr noundef %35, i64 noundef %36)
  %38 = call ptr @gtk_widget_get_parent(ptr noundef %37)
  %39 = call i64 @gtk_container_get_type() #14
  %40 = call ptr @g_type_check_instance_cast(ptr noundef %38, i64 noundef %39)
  store ptr %40, ptr %9, align 8, !tbaa !113
  call void @llvm.lifetime.start.p0(i64 8, ptr %10) #11
  %41 = load ptr, ptr %9, align 8, !tbaa !113
  %42 = call ptr @gtk_container_get_children(ptr noundef %41)
  store ptr %42, ptr %10, align 8, !tbaa !65
  br label %43

43:                                               ; preds = %89, %34
  %44 = load ptr, ptr %10, align 8, !tbaa !65
  %45 = icmp ne ptr %44, null
  br i1 %45, label %47, label %46

46:                                               ; preds = %43
  call void @llvm.lifetime.end.p0(i64 8, ptr %10) #11
  br label %93

47:                                               ; preds = %43
  call void @llvm.lifetime.start.p0(i64 8, ptr %11) #11
  %48 = load ptr, ptr %10, align 8, !tbaa !65
  %49 = getelementptr inbounds nuw %struct._GList, ptr %48, i32 0, i32 0
  %50 = load ptr, ptr %49, align 8, !tbaa !66
  store ptr %50, ptr %11, align 8, !tbaa !229
  call void @llvm.lifetime.start.p0(i64 8, ptr %12) #11
  %51 = call i64 @gtk_check_menu_item_get_type() #14
  store i64 %51, ptr %12, align 8, !tbaa !231
  call void @llvm.lifetime.start.p0(i64 4, ptr %13) #11
  %52 = load ptr, ptr %11, align 8, !tbaa !229
  %53 = icmp ne ptr %52, null
  br i1 %53, label %55, label %54

54:                                               ; preds = %47
  store i32 0, ptr %13, align 4, !tbaa !13
  br label %74

55:                                               ; preds = %47
  %56 = load ptr, ptr %11, align 8, !tbaa !229
  %57 = getelementptr inbounds nuw %struct._GTypeInstance, ptr %56, i32 0, i32 0
  %58 = load ptr, ptr %57, align 8, !tbaa !232
  %59 = icmp ne ptr %58, null
  br i1 %59, label %60, label %69

60:                                               ; preds = %55
  %61 = load ptr, ptr %11, align 8, !tbaa !229
  %62 = getelementptr inbounds nuw %struct._GTypeInstance, ptr %61, i32 0, i32 0
  %63 = load ptr, ptr %62, align 8, !tbaa !232
  %64 = getelementptr inbounds nuw %struct._GTypeClass, ptr %63, i32 0, i32 0
  %65 = load i64, ptr %64, align 8, !tbaa !235
  %66 = load i64, ptr %12, align 8, !tbaa !231
  %67 = icmp eq i64 %65, %66
  br i1 %67, label %68, label %69

68:                                               ; preds = %60
  store i32 1, ptr %13, align 4, !tbaa !13
  br label %73

69:                                               ; preds = %60, %55
  %70 = load ptr, ptr %11, align 8, !tbaa !229
  %71 = load i64, ptr %12, align 8, !tbaa !231
  %72 = call i32 @g_type_check_instance_is_a(ptr noundef %70, i64 noundef %71) #12
  store i32 %72, ptr %13, align 4, !tbaa !13
  br label %73

73:                                               ; preds = %69, %68
  br label %74

74:                                               ; preds = %73, %54
  %75 = load i32, ptr %13, align 4, !tbaa !13
  store i32 %75, ptr %14, align 4, !tbaa !13
  call void @llvm.lifetime.end.p0(i64 4, ptr %13) #11
  call void @llvm.lifetime.end.p0(i64 8, ptr %12) #11
  call void @llvm.lifetime.end.p0(i64 8, ptr %11) #11
  %76 = load i32, ptr %14, align 4, !tbaa !13
  %77 = icmp ne i32 %76, 0
  br i1 %77, label %78, label %88

78:                                               ; preds = %74
  %79 = load ptr, ptr %10, align 8, !tbaa !65
  %80 = getelementptr inbounds nuw %struct._GList, ptr %79, i32 0, i32 0
  %81 = load ptr, ptr %80, align 8, !tbaa !66
  %82 = load ptr, ptr %10, align 8, !tbaa !65
  %83 = getelementptr inbounds nuw %struct._GList, ptr %82, i32 0, i32 0
  %84 = load ptr, ptr %83, align 8, !tbaa !66
  %85 = load ptr, ptr %4, align 8, !tbaa !191
  %86 = icmp eq ptr %84, %85
  %87 = zext i1 %86 to i32
  call void @gtk_check_menu_item_set_active(ptr noundef %81, i32 noundef %87)
  br label %88

88:                                               ; preds = %78, %74
  br label %89

89:                                               ; preds = %88
  %90 = load ptr, ptr %10, align 8, !tbaa !65
  %91 = load ptr, ptr %10, align 8, !tbaa !65
  %92 = call ptr @g_list_delete_link(ptr noundef %90, ptr noundef %91)
  store ptr %92, ptr %10, align 8, !tbaa !65
  br label %43

93:                                               ; preds = %46
  %94 = load ptr, ptr %8, align 8, !tbaa !11
  %95 = load ptr, ptr %6, align 8, !tbaa !83
  call void @dt_gui_presets_apply_preset(ptr noundef %94, ptr noundef %95)
  call void @llvm.lifetime.end.p0(i64 8, ptr %9) #11
  br label %96

96:                                               ; preds = %93, %28
  br label %139

97:                                               ; preds = %3
  %98 = load ptr, ptr %5, align 8, !tbaa !221
  %99 = getelementptr inbounds nuw %struct._GdkEventButton, ptr %98, i32 0, i32 8
  %100 = load i32, ptr %99, align 4, !tbaa !228
  %101 = icmp eq i32 %100, 3
  br i1 %101, label %102, label %138

102:                                              ; preds = %97
  %103 = load ptr, ptr %5, align 8, !tbaa !221
  %104 = getelementptr inbounds nuw %struct._GdkEventButton, ptr %103, i32 0, i32 0
  %105 = load i32, ptr %104, align 8, !tbaa !237
  %106 = icmp eq i32 %105, 7
  br i1 %106, label %107, label %138

107:                                              ; preds = %102
  %108 = load i32, ptr @_click_time, align 4, !tbaa !13
  %109 = icmp ne i32 %108, 0
  br i1 %109, label %110, label %138

110:                                              ; preds = %107
  %111 = load i32, ptr %7, align 4, !tbaa !13
  %112 = icmp ne i32 %111, 0
  br i1 %112, label %120, label %113

113:                                              ; preds = %110
  %114 = load ptr, ptr %6, align 8, !tbaa !83
  %115 = getelementptr inbounds nuw %struct.dt_iop_module_t, ptr %114, i32 0, i32 8
  %116 = load ptr, ptr %115, align 16, !tbaa !208
  %117 = call i32 %116()
  %118 = and i32 %117, 128
  %119 = icmp ne i32 %118, 0
  br i1 %119, label %120, label %123

120:                                              ; preds = %113, %110
  %121 = load ptr, ptr %6, align 8, !tbaa !83
  %122 = load ptr, ptr %8, align 8, !tbaa !11
  call void @dt_shortcut_copy_lua(ptr noundef %121, ptr noundef %122)
  br label %137

123:                                              ; preds = %113
  call void @llvm.lifetime.start.p0(i64 8, ptr %15) #11
  %124 = load ptr, ptr %6, align 8, !tbaa !83
  %125 = call ptr @dt_iop_gui_duplicate(ptr noundef %124, i32 noundef 0)
  store ptr %125, ptr %15, align 8, !tbaa !83
  %126 = load ptr, ptr %15, align 8, !tbaa !83
  %127 = icmp ne ptr %126, null
  br i1 %127, label %128, label %131

128:                                              ; preds = %123
  %129 = load ptr, ptr %8, align 8, !tbaa !11
  %130 = load ptr, ptr %15, align 8, !tbaa !83
  call void @dt_gui_presets_apply_preset(ptr noundef %129, ptr noundef %130)
  br label %131

131:                                              ; preds = %128, %123
  %132 = call i32 @dt_conf_get_bool(ptr noundef @.str.169)
  %133 = icmp ne i32 %132, 0
  br i1 %133, label %134, label %136

134:                                              ; preds = %131
  %135 = load ptr, ptr %15, align 8, !tbaa !83
  call void @dt_iop_gui_rename_module(ptr noundef %135)
  br label %136

136:                                              ; preds = %134, %131
  call void @llvm.lifetime.end.p0(i64 8, ptr %15) #11
  br label %137

137:                                              ; preds = %136, %120
  br label %138

138:                                              ; preds = %137, %107, %102, %97
  br label %139

139:                                              ; preds = %138, %96
  %140 = call i32 @dt_conf_get_bool(ptr noundef @.str.55)
  %141 = icmp ne i32 %140, 0
  br i1 %141, label %145, label %142

142:                                              ; preds = %139
  %143 = call i32 @dt_conf_get_bool(ptr noundef @.str.56)
  %144 = icmp ne i32 %143, 0
  br i1 %144, label %145, label %149

145:                                              ; preds = %142, %139
  %146 = load ptr, ptr %6, align 8, !tbaa !83
  %147 = getelementptr inbounds nuw %struct.dt_iop_module_t, ptr %146, i32 0, i32 106
  %148 = load ptr, ptr %147, align 16, !tbaa !152
  call void @dt_iop_connect_accels_multi(ptr noundef %148)
  br label %149

149:                                              ; preds = %145, %142
  %150 = load ptr, ptr %5, align 8, !tbaa !221
  %151 = getelementptr inbounds nuw %struct._GdkEventButton, ptr %150, i32 0, i32 0
  %152 = load i32, ptr %151, align 8, !tbaa !237
  %153 = icmp eq i32 %152, 4
  br i1 %153, label %154, label %158

154:                                              ; preds = %149
  %155 = load ptr, ptr %5, align 8, !tbaa !221
  %156 = getelementptr inbounds nuw %struct._GdkEventButton, ptr %155, i32 0, i32 3
  %157 = load i32, ptr %156, align 4, !tbaa !223
  br label %159

158:                                              ; preds = %149
  br label %159

159:                                              ; preds = %158, %154
  %160 = phi i32 [ %157, %154 ], [ -1, %158 ]
  store i32 %160, ptr @_click_time, align 4, !tbaa !13
  %161 = load i32, ptr %7, align 4, !tbaa !13
  call void @llvm.lifetime.end.p0(i64 8, ptr %8) #11
  call void @llvm.lifetime.end.p0(i64 4, ptr %7) #11
  ret i32 %161
}