; Function Attrs: nounwind uwtable
define internal i32 @_menuitem_button_preset(ptr noundef %0, ptr noundef readonly captures(none) %1, ptr noundef %2) #0 {
  %4 = getelementptr inbounds nuw i8, ptr %1, i64 20
  %5 = load i32, ptr %4, align 4, !tbaa !174
  %6 = load i32, ptr @_click_time, align 4, !tbaa !117
  %7 = tail call i32 @dt_gui_long_click(i32 noundef %5, i32 noundef %6) #16
  %8 = tail call ptr @g_type_check_instance_cast(ptr noundef %0, i64 noundef 80) #16
  %9 = tail call ptr @g_object_get_data(ptr noundef %8, ptr noundef nonnull @.str.94) #16
  %10 = getelementptr inbounds nuw i8, ptr %1, i64 52
  %11 = load i32, ptr %10, align 4, !tbaa !179
  switch i32 %11, label %55 [
    i32 1, label %12
    i32 3, label %37
  ]

12:                                               ; preds = %3
  %13 = load i32, ptr @_click_time, align 4, !tbaa !117
  %14 = load i32, ptr %4, align 4, !tbaa !174
  %15 = icmp ugt i32 %13, %14
  br i1 %15, label %16, label %55

16:                                               ; preds = %12
  %17 = tail call i64 @gtk_widget_get_type() #20
  %18 = tail call ptr @g_type_check_instance_cast(ptr noundef %0, i64 noundef %17) #16
  %19 = tail call ptr @gtk_widget_get_parent(ptr noundef %18) #16
  %20 = tail call i64 @gtk_container_get_type() #20
  %21 = tail call ptr @g_type_check_instance_cast(ptr noundef %19, i64 noundef %20) #16
  %22 = tail call ptr @gtk_container_get_children(ptr noundef %21) #16
  %.not4654 = icmp eq ptr %22, null
  br i1 %.not4654, label %._crit_edge, label %.lr.ph

.lr.ph:                                           ; preds = %16
  %23 = tail call i64 @gtk_check_menu_item_get_type() #20
  br label %24

._crit_edge:                                      ; preds = %.critedge, %16
  tail call void @dt_gui_presets_apply_preset(ptr noundef %9, ptr noundef %2)
  br label %55

24:                                               ; preds = %.lr.ph, %.critedge
  %.055 = phi ptr [ %22, %.lr.ph ], [ %36, %.critedge ]
  %25 = load ptr, ptr %.055, align 8, !tbaa !59
  %.not49 = icmp eq ptr %25, null
  br i1 %.not49, label %.critedge, label %26

26:                                               ; preds = %24
  %27 = load ptr, ptr %25, align 8, !tbaa !180
  %.not50 = icmp eq ptr %27, null
  br i1 %.not50, label %31, label %28

28:                                               ; preds = %26
  %29 = load i64, ptr %27, align 8, !tbaa !183
  %30 = icmp eq i64 %29, %23
  br i1 %30, label %.critedge53, label %31

31:                                               ; preds = %28, %26
  %32 = tail call i32 @g_type_check_instance_is_a(ptr noundef nonnull %25, i64 noundef %23) #18
  %33 = icmp eq i32 %32, 0
  br i1 %33, label %.critedge, label %.critedge53

.critedge53:                                      ; preds = %28, %31
  %34 = icmp eq ptr %25, %0
  %35 = zext i1 %34 to i32
  tail call void @gtk_check_menu_item_set_active(ptr noundef nonnull %25, i32 noundef %35) #16
  br label %.critedge

.critedge:                                        ; preds = %24, %31, %.critedge53
  %36 = tail call ptr @g_list_delete_link(ptr noundef nonnull %.055, ptr noundef nonnull %.055) #16
  %.not46 = icmp eq ptr %36, null
  br i1 %.not46, label %._crit_edge, label %24

37:                                               ; preds = %3
  %38 = load i32, ptr %1, align 8, !tbaa !185
  %39 = icmp eq i32 %38, 7
  %40 = load i32, ptr @_click_time, align 4
  %41 = icmp ne i32 %40, 0
  %or.cond = select i1 %39, i1 %41, i1 false
  br i1 %or.cond, label %42, label %55

42:                                               ; preds = %37
  %.not = icmp eq i32 %7, 0
  br i1 %.not, label %43, label %48

43:                                               ; preds = %42
  %44 = getelementptr inbounds nuw i8, ptr %2, i64 64
  %45 = load ptr, ptr %44, align 16, !tbaa !171
  %46 = tail call i32 %45() #16
  %47 = and i32 %46, 128
  %.not43 = icmp eq i32 %47, 0
  br i1 %.not43, label %49, label %48

48:                                               ; preds = %43, %42
  tail call void @dt_shortcut_copy_lua(ptr noundef %2, ptr noundef %9) #16
  br label %55

49:                                               ; preds = %43
  %50 = tail call ptr @dt_iop_gui_duplicate(ptr noundef nonnull %2, i32 noundef 0) #16
  %.not44 = icmp eq ptr %50, null
  br i1 %.not44, label %52, label %51

51:                                               ; preds = %49
  tail call void @dt_gui_presets_apply_preset(ptr noundef %9, ptr noundef nonnull %50)
  br label %52

52:                                               ; preds = %51, %49
  %53 = tail call i32 @dt_conf_get_bool(ptr noundef nonnull @.str.169) #16
  %.not45 = icmp eq i32 %53, 0
  br i1 %.not45, label %55, label %54

54:                                               ; preds = %52
  tail call void @dt_iop_gui_rename_module(ptr noundef %50) #16
  br label %55

55:                                               ; preds = %52, %54, %3, %37, %48, %12, %._crit_edge
  %56 = tail call i32 @dt_conf_get_bool(ptr noundef nonnull @.str.55) #16
  %.not47 = icmp eq i32 %56, 0
  br i1 %.not47, label %57, label %59

57:                                               ; preds = %55
  %58 = tail call i32 @dt_conf_get_bool(ptr noundef nonnull @.str.56) #16
  %.not48 = icmp eq i32 %58, 0
  br i1 %.not48, label %62, label %59

59:                                               ; preds = %57, %55
  %60 = getelementptr inbounds nuw i8, ptr %2, i64 944
  %61 = load ptr, ptr %60, align 16, !tbaa !127
  tail call void @dt_iop_connect_accels_multi(ptr noundef %61) #16
  br label %62

62:                                               ; preds = %59, %57
  %63 = load i32, ptr %1, align 8, !tbaa !185
  %64 = icmp eq i32 %63, 4
  br i1 %64, label %65, label %67

65:                                               ; preds = %62
  %66 = load i32, ptr %4, align 4, !tbaa !174
  br label %67

67:                                               ; preds = %62, %65
  %68 = phi i32 [ %66, %65 ], [ -1, %62 ]
  store i32 %68, ptr @_click_time, align 4, !tbaa !117
  ret i32 %7
}